target datalayout = "e-m:e-p270:32:32-p271:32:32-p272:64:64-i64:64-i128:128-f80:128-n8:16:32:64-S128"
target triple = "x86_64-unknown-linux-gnu"

%struct.stb_lexer = type { ptr, ptr, ptr, ptr, i32, ptr, ptr, i64, double, i64, ptr, i32 }

; Function Attrs: nounwind uwtable
define void @stb_c_lexer_init(ptr noundef %lexer, ptr noundef %input_stream, ptr noundef %input_stream_end, ptr noundef %string_store, i32 noundef %store_length) #0 {
entry:
  %lexer.addr = alloca ptr, align 8
  %input_stream.addr = alloca ptr, align 8
  %input_stream_end.addr = alloca ptr, align 8
  %string_store.addr = alloca ptr, align 8
  %store_length.addr = alloca i32, align 4
  store ptr %lexer, ptr %lexer.addr, align 8
  store ptr %input_stream, ptr %input_stream.addr, align 8
  store ptr %input_stream_end, ptr %input_stream_end.addr, align 8
  store ptr %string_store, ptr %string_store.addr, align 8
  store i32 %store_length, ptr %store_length.addr, align 4
  %0 = load ptr, ptr %input_stream.addr, align 8
  %1 = load ptr, ptr %lexer.addr, align 8
  %input_stream1 = getelementptr inbounds %struct.stb_lexer, ptr %1, i32 0, i32 0
  store ptr %0, ptr %input_stream1, align 8
  %2 = load ptr, ptr %input_stream_end.addr, align 8
  %3 = load ptr, ptr %lexer.addr, align 8
  %eof = getelementptr inbounds %struct.stb_lexer, ptr %3, i32 0, i32 1
  store ptr %2, ptr %eof, align 8
  %4 = load ptr, ptr %input_stream.addr, align 8
  %5 = load ptr, ptr %lexer.addr, align 8
  %parse_point = getelementptr inbounds %struct.stb_lexer, ptr %5, i32 0, i32 2
  store ptr %4, ptr %parse_point, align 8
  %6 = load ptr, ptr %string_store.addr, align 8
  %7 = load ptr, ptr %lexer.addr, align 8
  %string_storage = getelementptr inbounds %struct.stb_lexer, ptr %7, i32 0, i32 3
  store ptr %6, ptr %string_storage, align 8
  %8 = load i32, ptr %store_length.addr, align 4
  %9 = load ptr, ptr %lexer.addr, align 8
  %string_storage_len = getelementptr inbounds %struct.stb_lexer, ptr %9, i32 0, i32 4
  store i32 %8, ptr %string_storage_len, align 8
  ret void
}