; Function Attrs: mustprogress nofree norecurse nosync nounwind willreturn memory(argmem: write) uwtable
define void @stb_c_lexer_init(ptr noundef writeonly captures(none) initializes((0, 36)) %lexer, ptr noundef %input_stream, ptr noundef %input_stream_end, ptr noundef %string_store, i32 noundef %store_length) local_unnamed_addr #0 {
entry:
  store ptr %input_stream, ptr %lexer, align 8
  %eof = getelementptr inbounds nuw i8, ptr %lexer, i64 8
  store ptr %input_stream_end, ptr %eof, align 8
  %parse_point = getelementptr inbounds nuw i8, ptr %lexer, i64 16
  store ptr %input_stream, ptr %parse_point, align 8
  %string_storage = getelementptr inbounds nuw i8, ptr %lexer, i64 24
  store ptr %string_store, ptr %string_storage, align 8
  %string_storage_len = getelementptr inbounds nuw i8, ptr %lexer, i64 32
  store i32 %store_length, ptr %string_storage_len, align 8
  ret void
}